; Function Attrs: mustprogress nounwind uwtable
define hidden noundef i64 @_ZN8XBarrier26relocate_or_mark_no_followEm(i64 noundef %0) local_unnamed_addr #0 align 2 {
  %2 = load i32, ptr @XGlobalPhase, align 4
  %3 = icmp eq i32 %2, 2
  br i1 %3, label %4, label %22

4:                                                ; preds = %1
  %5 = load ptr, ptr @_ZN5XHeap5_heapE, align 8
  %6 = load i64, ptr @XAddressOffsetMask, align 8
  %7 = and i64 %6, %0
  %8 = lshr i64 %7, 21
  %9 = getelementptr inbounds i8, ptr %5, i64 816
  %10 = load ptr, ptr %9, align 8
  %11 = getelementptr inbounds ptr, ptr %10, i64 %8
  %12 = load ptr, ptr %11, align 8
  %13 = icmp eq ptr %12, null
  br i1 %13, label %14, label %17

14:                                               ; preds = %4
  %15 = load i64, ptr @XAddressGoodMask, align 8
  %16 = or i64 %15, %7
  br label %_ZN8XBarrier8relocateEm.exit

17:                                               ; preds = %4
  %18 = getelementptr inbounds i8, ptr %5, i64 3408
  %19 = load i64, ptr @XAddressGoodMask, align 8
  %20 = or i64 %19, %7
  %21 = tail call noundef i64 @_ZNK9XRelocate15relocate_objectEP11XForwardingm(ptr noundef nonnull align 8 dereferenceable(8) %18, ptr noundef nonnull %12, i64 noundef %20) #9
  br label %_ZN8XBarrier8relocateEm.exit

22:                                               ; preds = %1
  %23 = load i64, ptr @XAddressMetadataMarked, align 8
  %24 = and i64 %23, %0
  %.not.i = icmp eq i64 %24, 0
  br i1 %.not.i, label %30, label %25

25:                                               ; preds = %22
  %26 = load i64, ptr @XAddressOffsetMask, align 8
  %27 = and i64 %26, %0
  %28 = load i64, ptr @XAddressGoodMask, align 8
  %29 = or i64 %27, %28
  br label %_ZN8XBarrier5remapEm.exit.i

30:                                               ; preds = %22
  %31 = load i64, ptr @XAddressMetadataRemapped, align 8
  %32 = and i64 %31, %0
  %.not8.i = icmp eq i64 %32, 0
  br i1 %.not8.i, label %38, label %33

33:                                               ; preds = %30
  %34 = load i64, ptr @XAddressOffsetMask, align 8
  %35 = and i64 %34, %0
  %36 = load i64, ptr @XAddressGoodMask, align 8
  %37 = or i64 %35, %36
  br label %_ZN8XBarrier5remapEm.exit.i

38:                                               ; preds = %30
  %39 = load ptr, ptr @_ZN5XHeap5_heapE, align 8
  %40 = load i64, ptr @XAddressOffsetMask, align 8
  %41 = and i64 %40, %0
  %42 = lshr i64 %41, 21
  %43 = getelementptr inbounds i8, ptr %39, i64 816
  %44 = load ptr, ptr %43, align 8
  %45 = getelementptr inbounds ptr, ptr %44, i64 %42
  %46 = load ptr, ptr %45, align 8
  %47 = icmp eq ptr %46, null
  br i1 %47, label %48, label %51

48:                                               ; preds = %38
  %49 = load i64, ptr @XAddressGoodMask, align 8
  %50 = or i64 %49, %41
  br label %_ZN8XBarrier5remapEm.exit.i

51:                                               ; preds = %38
  %52 = getelementptr inbounds i8, ptr %39, i64 3408
  %53 = load i64, ptr @XAddressGoodMask, align 8
  %54 = or i64 %53, %41
  %55 = tail call noundef i64 @_ZNK9XRelocate14forward_objectEP11XForwardingm(ptr noundef nonnull align 8 dereferenceable(8) %52, ptr noundef nonnull %46, i64 noundef %54) #9
  %.pre = load i32, ptr @XGlobalPhase, align 4
  br label %_ZN8XBarrier5remapEm.exit.i

_ZN8XBarrier5remapEm.exit.i:                      ; preds = %51, %48, %33, %25
  %56 = phi i32 [ %2, %25 ], [ %2, %33 ], [ %2, %48 ], [ %.pre, %51 ]
  %.0.i = phi i64 [ %29, %25 ], [ %37, %33 ], [ %50, %48 ], [ %55, %51 ]
  %57 = icmp eq i32 %56, 0
  br i1 %57, label %58, label %_ZN8XBarrier8relocateEm.exit

58:                                               ; preds = %_ZN8XBarrier5remapEm.exit.i
  %59 = load ptr, ptr @_ZN5XHeap5_heapE, align 8
  %60 = getelementptr inbounds i8, ptr %59, i64 832
  tail call void @_ZN5XMark11mark_objectILb0ELb0ELb0ELb1EEEvm(ptr noundef nonnull align 64 dereferenceable(2492) %60, i64 noundef %.0.i)
  br label %_ZN8XBarrier8relocateEm.exit

_ZN8XBarrier8relocateEm.exit:                     ; preds = %58, %_ZN8XBarrier5remapEm.exit.i, %17, %14
  %61 = phi i64 [ %16, %14 ], [ %21, %17 ], [ %.0.i, %_ZN8XBarrier5remapEm.exit.i ], [ %.0.i, %58 ]
  ret i64 %61
}